target datalayout = "e-m:e-p270:32:32-p271:32:32-p272:64:64-i64:64-i128:128-f80:128-n8:16:32:64-S128"
target triple = "x86_64-pc-linux-gnu"

%struct.ACLCategoryItem = type { ptr, i64 }

@ACLCommandCategories = internal global ptr null, align 8

; Function Attrs: nounwind uwtable
define dso_local i64 @ACLGetCommandCategoryFlagByName(ptr noundef %0) #0 {
  %2 = alloca i64, align 8
  %3 = alloca ptr, align 8
  %4 = alloca i32, align 4
  %5 = alloca i32, align 4
  store ptr %0, ptr %3, align 8, !tbaa !5
  call void @llvm.lifetime.start.p0(i64 4, ptr %4) #14
  store i32 0, ptr %4, align 4, !tbaa !17
  br label %6

6:                                                ; preds = %33, %1
  %7 = load ptr, ptr @ACLCommandCategories, align 8, !tbaa !12
  %8 = load i32, ptr %4, align 4, !tbaa !17
  %9 = sext i32 %8 to i64
  %10 = getelementptr inbounds %struct.ACLCategoryItem, ptr %7, i64 %9
  %11 = getelementptr inbounds nuw %struct.ACLCategoryItem, ptr %10, i32 0, i32 1
  %12 = load i64, ptr %11, align 8, !tbaa !16
  %13 = icmp ne i64 %12, 0
  br i1 %13, label %15, label %14

14:                                               ; preds = %6
  store i32 2, ptr %5, align 4
  br label %36

15:                                               ; preds = %6
  %16 = load ptr, ptr %3, align 8, !tbaa !5
  %17 = load ptr, ptr @ACLCommandCategories, align 8, !tbaa !12
  %18 = load i32, ptr %4, align 4, !tbaa !17
  %19 = sext i32 %18 to i64
  %20 = getelementptr inbounds %struct.ACLCategoryItem, ptr %17, i64 %19
  %21 = getelementptr inbounds nuw %struct.ACLCategoryItem, ptr %20, i32 0, i32 0
  %22 = load ptr, ptr %21, align 8, !tbaa !14
  %23 = call i32 @strcasecmp(ptr noundef %16, ptr noundef %22) #17
  %24 = icmp ne i32 %23, 0
  br i1 %24, label %32, label %25

25:                                               ; preds = %15
  %26 = load ptr, ptr @ACLCommandCategories, align 8, !tbaa !12
  %27 = load i32, ptr %4, align 4, !tbaa !17
  %28 = sext i32 %27 to i64
  %29 = getelementptr inbounds %struct.ACLCategoryItem, ptr %26, i64 %28
  %30 = getelementptr inbounds nuw %struct.ACLCategoryItem, ptr %29, i32 0, i32 1
  %31 = load i64, ptr %30, align 8, !tbaa !16
  store i64 %31, ptr %2, align 8
  store i32 1, ptr %5, align 4
  br label %36

32:                                               ; preds = %15
  br label %33

33:                                               ; preds = %32
  %34 = load i32, ptr %4, align 4, !tbaa !17
  %35 = add nsw i32 %34, 1
  store i32 %35, ptr %4, align 4, !tbaa !17
  br label %6, !llvm.loop !31

36:                                               ; preds = %25, %14
  call void @llvm.lifetime.end.p0(i64 4, ptr %4) #14
  %37 = load i32, ptr %5, align 4
  switch i32 %37, label %41 [
    i32 2, label %38
    i32 1, label %39
  ]

38:                                               ; preds = %36
  store i64 0, ptr %2, align 8
  br label %39

39:                                               ; preds = %38, %36
  %40 = load i64, ptr %2, align 8
  ret i64 %40

41:                                               ; preds = %36
  unreachable
}