; Function Attrs: nofree nounwind memory(read) uwtable
define dso_local i64 @ACLGetCommandCategoryFlagByName(ptr noundef readonly captures(none) %0) local_unnamed_addr #8 {
  %2 = load ptr, ptr @ACLCommandCategories, align 8, !tbaa !9
  %3 = getelementptr inbounds nuw i8, ptr %2, i64 8
  %4 = load i64, ptr %3, align 8, !tbaa !15
  %.not9 = icmp eq i64 %4, 0
  br i1 %.not9, label %._crit_edge, label %.lr.ph.preheader

.lr.ph.preheader:                                 ; preds = %1
  %5 = load ptr, ptr %2, align 8, !tbaa !12
  %6 = tail call i32 @strcasecmp(ptr noundef %0, ptr noundef %5) #29
  %.not814 = icmp eq i32 %6, 0
  br i1 %.not814, label %._crit_edge, label %.lr.ph16

.lr.ph16:                                         ; preds = %.lr.ph.preheader, %.lr.ph
  %indvars.iv15 = phi i64 [ %indvars.iv.next, %.lr.ph ], [ 0, %.lr.ph.preheader ]
  %indvars.iv.next = add nuw nsw i64 %indvars.iv15, 1
  %7 = getelementptr inbounds nuw %struct.ACLCategoryItem, ptr %2, i64 %indvars.iv.next, i32 1
  %8 = load i64, ptr %7, align 8, !tbaa !15
  %.not = icmp eq i64 %8, 0
  br i1 %.not, label %._crit_edge, label %.lr.ph, !llvm.loop !28

.lr.ph:                                           ; preds = %.lr.ph16
  %9 = getelementptr inbounds nuw %struct.ACLCategoryItem, ptr %2, i64 %indvars.iv.next
  %10 = load ptr, ptr %9, align 8, !tbaa !12
  %11 = tail call i32 @strcasecmp(ptr noundef %0, ptr noundef %10) #29
  %.not8 = icmp eq i32 %11, 0
  br i1 %.not8, label %._crit_edge, label %.lr.ph16, !llvm.loop !28

._crit_edge:                                      ; preds = %.lr.ph, %.lr.ph16, %.lr.ph.preheader, %1
  %.lcssa = phi i64 [ 0, %1 ], [ %4, %.lr.ph.preheader ], [ 0, %.lr.ph16 ], [ %8, %.lr.ph ]
  ret i64 %.lcssa
}